target datalayout = "e-m:e-p270:32:32-p271:32:32-p272:64:64-i64:64-i128:128-f80:128-n8:16:32:64-S128"
target triple = "x86_64-pc-linux-gnu"

%"class.arrow::SmallBasicDecimal.6" = type { i64 }

; Function Attrs: mustprogress nounwind uwtable
define linkonce_odr noundef i64 @_ZN5arrow8internal13SafeLeftShiftIljEET_S2_T0_(i64 noundef %0, i32 noundef %1) #0 comdat {
  %3 = alloca i64, align 8
  %4 = alloca i32, align 4
  store i64 %0, ptr %3, align 8, !tbaa !8
  store i32 %1, ptr %4, align 4, !tbaa !30
  %5 = load i64, ptr %3, align 8, !tbaa !8
  %6 = load i32, ptr %4, align 4, !tbaa !30
  %7 = zext i32 %6 to i64
  %8 = shl i64 %5, %7
  ret i64 %8
}

; Function Attrs: mustprogress uwtable
define noundef nonnull align 8 dereferenceable(8) ptr @_ZN5arrow14BasicDecimal64lSEj(ptr noundef nonnull align 8 dereferenceable(8) %0, i32 noundef %1) #6 align 2 {
  %3 = alloca ptr, align 8
  %4 = alloca i32, align 4
  store ptr %0, ptr %3, align 8, !tbaa !92
  store i32 %1, ptr %4, align 4, !tbaa !30
  %5 = load ptr, ptr %3, align 8
  %6 = load i32, ptr %4, align 4, !tbaa !30
  %7 = icmp ne i32 %6, 0
  br i1 %7, label %8, label %20

8:                                                ; preds = %2
  %9 = load i32, ptr %4, align 4, !tbaa !30
  %10 = icmp ult i32 %9, 64
  br i1 %10, label %11, label %17

11:                                               ; preds = %8
  %12 = getelementptr inbounds nuw %"class.arrow::SmallBasicDecimal.6", ptr %5, i32 0, i32 0
  %13 = load i64, ptr %12, align 8, !tbaa !36
  %14 = load i32, ptr %4, align 4, !tbaa !30
  %15 = call noundef i64 @_ZN5arrow8internal13SafeLeftShiftIljEET_S2_T0_(i64 noundef %13, i32 noundef %14)
  %16 = getelementptr inbounds nuw %"class.arrow::SmallBasicDecimal.6", ptr %5, i32 0, i32 0
  store i64 %15, ptr %16, align 8, !tbaa !36
  br label %19

17:                                               ; preds = %8
  %18 = getelementptr inbounds nuw %"class.arrow::SmallBasicDecimal.6", ptr %5, i32 0, i32 0
  store i64 0, ptr %18, align 8, !tbaa !36
  br label %19

19:                                               ; preds = %17, %11
  br label %20

20:                                               ; preds = %19, %2
  ret ptr %5
}